; ModuleID = '59/57.c'
source_filename = "59/57.c"
target datalayout = "e-m:e-p270:32:32-p271:32:32-p272:64:64-i64:64-f80:128-n8:16:32:64-S128"
target triple = "x86_64-pc-linux-gnu"

@map = common dso_local global [102 x [102 x i8]] zeroinitializer, align 16
@.str = private unnamed_addr constant [3 x i8] c"%d\00", align 1
@.str.1 = private unnamed_addr constant [3 x i8] c"%s\00", align 1
@queue = common dso_local global [2 x [12901 x i32]] zeroinitializer, align 16
@num = common dso_local global [2 x i32] zeroinitializer, align 4
@sum = common dso_local global i32 0, align 4
@.str.2 = private unnamed_addr constant [4 x i8] c"%d\0A\00", align 1

; Function Attrs: noinline nounwind uwtable
define dso_local i32 @main() #0 {
  %1 = alloca i32, align 4
  %2 = alloca i32, align 4
  %3 = alloca i32, align 4
  %4 = alloca i32, align 4
  %5 = alloca i32, align 4
  %6 = alloca i32, align 4
  %7 = alloca i32, align 4
  %8 = alloca i32, align 4
  %9 = alloca i32, align 4
  store i32 0, i32* %1, align 4
  call void @llvm.memset.p0i8.i64(i8* align 16 getelementptr inbounds ([102 x [102 x i8]], [102 x [102 x i8]]* @map, i32 0, i32 0, i32 0), i8 35, i64 10404, i1 false)
  %10 = call i32 (i8*, ...) @__isoc99_scanf(i8* getelementptr inbounds ([3 x i8], [3 x i8]* @.str, i64 0, i64 0), i32* %5)
  store i32 1, i32* %2, align 4
  br label %11

11:                                               ; preds = %57, %0
  %12 = load i32, i32* %2, align 4
  %13 = load i32, i32* %5, align 4
  %14 = icmp sle i32 %12, %13
  br i1 %14, label %15, label %60

15:                                               ; preds = %11
  %16 = load i32, i32* %2, align 4
  %17 = sext i32 %16 to i64
  %18 = getelementptr inbounds [102 x [102 x i8]], [102 x [102 x i8]]* @map, i64 0, i64 %17
  %19 = getelementptr inbounds [102 x i8], [102 x i8]* %18, i64 0, i64 1
  %20 = call i32 (i8*, ...) @__isoc99_scanf(i8* getelementptr inbounds ([3 x i8], [3 x i8]* @.str.1, i64 0, i64 0), i8* %19)
  store i32 1, i32* %3, align 4
  br label %21

21:                                               ; preds = %47, %15
  %22 = load i32, i32* %3, align 4
  %23 = load i32, i32* %5, align 4
  %24 = icmp sle i32 %22, %23
  br i1 %24, label %25, label %50

25:                                               ; preds = %21
  %26 = load i32, i32* %2, align 4
  %27 = sext i32 %26 to i64
  %28 = getelementptr inbounds [102 x [102 x i8]], [102 x [102 x i8]]* @map, i64 0, i64 %27
  %29 = load i32, i32* %3, align 4
  %30 = sext i32 %29 to i64
  %31 = getelementptr inbounds [102 x i8], [102 x i8]* %28, i64 0, i64 %30
  %32 = load i8, i8* %31, align 1
  %33 = sext i8 %32 to i32
  %34 = icmp eq i32 %33, 64
  br i1 %34, label %35, label %46

35:                                               ; preds = %25
  %36 = load i32, i32* %2, align 4
  %37 = shl i32 %36, 7
  %38 = load i32, i32* %3, align 4
  %39 = add nsw i32 %37, %38
  %40 = load i32, i32* getelementptr inbounds ([2 x i32], [2 x i32]* @num, i64 0, i64 0), align 4
  %41 = add nsw i32 %40, 1
  store i32 %41, i32* getelementptr inbounds ([2 x i32], [2 x i32]* @num, i64 0, i64 0), align 4
  %42 = sext i32 %40 to i64
  %43 = getelementptr inbounds [12901 x i32], [12901 x i32]* getelementptr inbounds ([2 x [12901 x i32]], [2 x [12901 x i32]]* @queue, i64 0, i64 0), i64 0, i64 %42
  store i32 %39, i32* %43, align 4
  %44 = load i32, i32* @sum, align 4
  %45 = add nsw i32 %44, 1
  store i32 %45, i32* @sum, align 4
  br label %46

46:                                               ; preds = %35, %25
  br label %47

47:                                               ; preds = %46
  %48 = load i32, i32* %3, align 4
  %49 = add nsw i32 %48, 1
  store i32 %49, i32* %3, align 4
  br label %21

50:                                               ; preds = %21
  %51 = load i32, i32* %2, align 4
  %52 = sext i32 %51 to i64
  %53 = getelementptr inbounds [102 x [102 x i8]], [102 x [102 x i8]]* @map, i64 0, i64 %52
  %54 = load i32, i32* %3, align 4
  %55 = sext i32 %54 to i64
  %56 = getelementptr inbounds [102 x i8], [102 x i8]* %53, i64 0, i64 %55
  store i8 35, i8* %56, align 1
  br label %57

57:                                               ; preds = %50
  %58 = load i32, i32* %2, align 4
  %59 = add nsw i32 %58, 1
  store i32 %59, i32* %2, align 4
  br label %11

60:                                               ; preds = %11
  %61 = call i32 (i8*, ...) @__isoc99_scanf(i8* getelementptr inbounds ([3 x i8], [3 x i8]* @.str, i64 0, i64 0), i32* %6)
  store i32 0, i32* %4, align 4
  br label %62

62:                                               ; preds = %133, %60
  %63 = load i32, i32* %4, align 4
  %64 = load i32, i32* %6, align 4
  %65 = sub nsw i32 %64, 1
  %66 = icmp slt i32 %63, %65
  br i1 %66, label %67, label %136

67:                                               ; preds = %62
  %68 = load i32, i32* %4, align 4
  %69 = and i32 %68, 1
  store i32 %69, i32* %7, align 4
  store i32 0, i32* %2, align 4
  br label %70

70:                                               ; preds = %126, %67
  %71 = load i32, i32* %2, align 4
  %72 = load i32, i32* %7, align 4
  %73 = sext i32 %72 to i64
  %74 = getelementptr inbounds [2 x i32], [2 x i32]* @num, i64 0, i64 %73
  %75 = load i32, i32* %74, align 4
  %76 = icmp slt i32 %71, %75
  br i1 %76, label %77, label %129

77:                                               ; preds = %70
  %78 = load i32, i32* %7, align 4
  %79 = sext i32 %78 to i64
  %80 = getelementptr inbounds [2 x [12901 x i32]], [2 x [12901 x i32]]* @queue, i64 0, i64 %79
  %81 = load i32, i32* %2, align 4
  %82 = sext i32 %81 to i64
  %83 = getelementptr inbounds [12901 x i32], [12901 x i32]* %80, i64 0, i64 %82
  %84 = load i32, i32* %83, align 4
  %85 = ashr i32 %84, 7
  store i32 %85, i32* %8, align 4
  %86 = load i32, i32* %7, align 4
  %87 = sext i32 %86 to i64
  %88 = getelementptr inbounds [2 x [12901 x i32]], [2 x [12901 x i32]]* @queue, i64 0, i64 %87
  %89 = load i32, i32* %2, align 4
  %90 = sext i32 %89 to i64
  %91 = getelementptr inbounds [12901 x i32], [12901 x i32]* %88, i64 0, i64 %90
  %92 = load i32, i32* %91, align 4
  %93 = and i32 %92, 127
  store i32 %93, i32* %9, align 4
  %94 = load i32, i32* %8, align 4
  %95 = sub nsw i32 %94, 1
  %96 = load i32, i32* %9, align 4
  %97 = load i32, i32* %7, align 4
  %98 = icmp ne i32 %97, 0
  %99 = xor i1 %98, true
  %100 = zext i1 %99 to i32
  %101 = call i32 (i32, i32, i32, ...) bitcast (i32 (...)* @INFECT to i32 (i32, i32, i32, ...)*)(i32 %95, i32 %96, i32 %100)
  %102 = load i32, i32* %8, align 4
  %103 = add nsw i32 %102, 1
  %104 = load i32, i32* %9, align 4
  %105 = load i32, i32* %7, align 4
  %106 = icmp ne i32 %105, 0
  %107 = xor i1 %106, true
  %108 = zext i1 %107 to i32
  %109 = call i32 (i32, i32, i32, ...) bitcast (i32 (...)* @INFECT to i32 (i32, i32, i32, ...)*)(i32 %103, i32 %104, i32 %108)
  %110 = load i32, i32* %8, align 4
  %111 = load i32, i32* %9, align 4
  %112 = sub nsw i32 %111, 1
  %113 = load i32, i32* %7, align 4
  %114 = icmp ne i32 %113, 0
  %115 = xor i1 %114, true
  %116 = zext i1 %115 to i32
  %117 = call i32 (i32, i32, i32, ...) bitcast (i32 (...)* @INFECT to i32 (i32, i32, i32, ...)*)(i32 %110, i32 %112, i32 %116)
  %118 = load i32, i32* %8, align 4
  %119 = load i32, i32* %9, align 4
  %120 = add nsw i32 %119, 1
  %121 = load i32, i32* %7, align 4
  %122 = icmp ne i32 %121, 0
  %123 = xor i1 %122, true
  %124 = zext i1 %123 to i32
  %125 = call i32 (i32, i32, i32, ...) bitcast (i32 (...)* @INFECT to i32 (i32, i32, i32, ...)*)(i32 %118, i32 %120, i32 %124)
  br label %126

126:                                              ; preds = %77
  %127 = load i32, i32* %2, align 4
  %128 = add nsw i32 %127, 1
  store i32 %128, i32* %2, align 4
  br label %70

129:                                              ; preds = %70
  %130 = load i32, i32* %7, align 4
  %131 = sext i32 %130 to i64
  %132 = getelementptr inbounds [2 x i32], [2 x i32]* @num, i64 0, i64 %131
  store i32 0, i32* %132, align 4
  br label %133

133:                                              ; preds = %129
  %134 = load i32, i32* %4, align 4
  %135 = add nsw i32 %134, 1
  store i32 %135, i32* %4, align 4
  br label %62

136:                                              ; preds = %62
  %137 = load i32, i32* @sum, align 4
  %138 = call i32 (i8*, ...) @printf(i8* getelementptr inbounds ([4 x i8], [4 x i8]* @.str.2, i64 0, i64 0), i32 %137)
  ret i32 0
}

; Function Attrs: argmemonly nounwind willreturn
declare void @llvm.memset.p0i8.i64(i8* nocapture writeonly, i8, i64, i1 immarg) #1

declare dso_local i32 @__isoc99_scanf(i8*, ...) #2

declare dso_local i32 @INFECT(...) #2

declare dso_local i32 @printf(i8*, ...) #2


!llvm.module.flags = !{!0}
!llvm.ident = !{!1}

!0 = !{i32 1, !"wchar_size", i32 4}
!1 = !{!"clang version 10.0.0-4ubuntu1 "}
